; Function Attrs: mustprogress nounwind uwtable
define hidden void @_ZN11StringDedup4Stat26report_cleanup_table_startEmm(ptr nocapture noundef nonnull align 8 dereferenceable(248) %0, i64 noundef %1, i64 noundef %2) local_unnamed_addr #2 align 2 {
  %4 = load volatile ptr, ptr getelementptr inbounds (i8, ptr @_ZN16LogTagSetMappingILN6LogTag4typeE148ELS1_114ELS1_142ELS1_0ELS1_0ELS1_0EE7_tagsetE, i64 56), align 8
  %.not = icmp eq ptr %4, null
  br i1 %.not, label %7, label %5

5:                                                ; preds = %3
  %6 = sub i64 %1, %2
  tail call void (ptr, ...) @_ZN7LogImplILN6LogTag4typeE148ELS1_114ELS1_142ELS1_0ELS1_0ELS1_0EE5writeILN8LogLevel4typeE2EEEvPKcz(ptr noundef nonnull @.str.14, i64 noundef %2, i64 noundef %1, i64 noundef %6)
  br label %7

7:                                                ; preds = %3, %5
  %8 = tail call { i64, i64 } @_ZN29CompositeElapsedCounterSource3nowEv() #7
  %9 = extractvalue { i64, i64 } %8, 0
  %10 = extractvalue { i64, i64 } %8, 1
  %11 = getelementptr inbounds i8, ptr %0, i64 168
  store i64 %9, ptr %11, align 8
  %.sroa.2.0..sroa_idx = getelementptr inbounds i8, ptr %0, i64 176
  store i64 %10, ptr %.sroa.2.0..sroa_idx, align 8
  %12 = getelementptr inbounds i8, ptr %0, i64 128
  %13 = load i64, ptr %12, align 8
  %14 = add i64 %13, 1
  store i64 %14, ptr %12, align 8
  ret void
}